target datalayout = "e-m:e-p270:32:32-p271:32:32-p272:64:64-i64:64-i128:128-f80:128-n8:16:32:64-S128"
target triple = "x86_64-pc-linux-gnu"

%struct.AVEncryptionInitInfo = type { ptr, i32, ptr, i32, i32, ptr, i32, ptr }

; Function Attrs: nounwind uwtable
define void @av_encryption_init_info_free(ptr noundef %0) #0 {
  %2 = alloca ptr, align 8
  %3 = alloca i32, align 4
  store ptr %0, ptr %2, align 8, !tbaa !35
  call void @llvm.lifetime.start.p0(i64 4, ptr %3) #5
  %4 = load ptr, ptr %2, align 8, !tbaa !35
  %5 = icmp ne ptr %4, null
  br i1 %5, label %6, label %38

6:                                                ; preds = %1
  store i32 0, ptr %3, align 4, !tbaa !4
  br label %7

7:                                                ; preds = %21, %6
  %8 = load i32, ptr %3, align 4, !tbaa !4
  %9 = load ptr, ptr %2, align 8, !tbaa !35
  %10 = getelementptr inbounds nuw %struct.AVEncryptionInitInfo, ptr %9, i32 0, i32 3
  %11 = load i32, ptr %10, align 8, !tbaa !43
  %12 = icmp ult i32 %8, %11
  br i1 %12, label %13, label %24

13:                                               ; preds = %7
  %14 = load ptr, ptr %2, align 8, !tbaa !35
  %15 = getelementptr inbounds nuw %struct.AVEncryptionInitInfo, ptr %14, i32 0, i32 2
  %16 = load ptr, ptr %15, align 8, !tbaa !42
  %17 = load i32, ptr %3, align 4, !tbaa !4
  %18 = zext i32 %17 to i64
  %19 = getelementptr inbounds nuw ptr, ptr %16, i64 %18
  %20 = load ptr, ptr %19, align 8, !tbaa !23
  call void @av_free(ptr noundef %20)
  br label %21

21:                                               ; preds = %13
  %22 = load i32, ptr %3, align 4, !tbaa !4
  %23 = add i32 %22, 1
  store i32 %23, ptr %3, align 4, !tbaa !4
  br label %7, !llvm.loop !48

24:                                               ; preds = %7
  %25 = load ptr, ptr %2, align 8, !tbaa !35
  %26 = getelementptr inbounds nuw %struct.AVEncryptionInitInfo, ptr %25, i32 0, i32 7
  %27 = load ptr, ptr %26, align 8, !tbaa !49
  call void @av_encryption_init_info_free(ptr noundef %27)
  %28 = load ptr, ptr %2, align 8, !tbaa !35
  %29 = getelementptr inbounds nuw %struct.AVEncryptionInitInfo, ptr %28, i32 0, i32 0
  %30 = load ptr, ptr %29, align 8, !tbaa !37
  call void @av_free(ptr noundef %30)
  %31 = load ptr, ptr %2, align 8, !tbaa !35
  %32 = getelementptr inbounds nuw %struct.AVEncryptionInitInfo, ptr %31, i32 0, i32 2
  %33 = load ptr, ptr %32, align 8, !tbaa !42
  call void @av_free(ptr noundef %33)
  %34 = load ptr, ptr %2, align 8, !tbaa !35
  %35 = getelementptr inbounds nuw %struct.AVEncryptionInitInfo, ptr %34, i32 0, i32 5
  %36 = load ptr, ptr %35, align 8, !tbaa !45
  call void @av_free(ptr noundef %36)
  %37 = load ptr, ptr %2, align 8, !tbaa !35
  call void @av_free(ptr noundef %37)
  br label %38

38:                                               ; preds = %24, %1
  call void @llvm.lifetime.end.p0(i64 4, ptr %3) #5
  ret void
}