; Function Attrs: nounwind uwtable
define void @av_encryption_init_info_free(ptr noundef %0) local_unnamed_addr #0 {
  %.not = icmp eq ptr %0, null
  br i1 %.not, label %common.ret14, label %.preheader

.preheader:                                       ; preds = %1
  %2 = getelementptr inbounds nuw i8, ptr %0, i64 24
  %3 = load i32, ptr %2, align 8, !tbaa !36
  %.not12 = icmp eq i32 %3, 0
  br i1 %.not12, label %._crit_edge, label %.lr.ph

.lr.ph:                                           ; preds = %.preheader
  %4 = getelementptr inbounds nuw i8, ptr %0, i64 16
  br label %5

5:                                                ; preds = %.lr.ph, %5
  %indvars.iv = phi i64 [ 0, %.lr.ph ], [ %indvars.iv.next, %5 ]
  %6 = load ptr, ptr %4, align 8, !tbaa !35
  %7 = getelementptr inbounds nuw ptr, ptr %6, i64 %indvars.iv
  %8 = load ptr, ptr %7, align 8, !tbaa !41
  tail call void @av_free(ptr noundef %8) #4
  %indvars.iv.next = add nuw nsw i64 %indvars.iv, 1
  %9 = load i32, ptr %2, align 8, !tbaa !36
  %10 = zext i32 %9 to i64
  %11 = icmp samesign ult i64 %indvars.iv.next, %10
  br i1 %11, label %5, label %._crit_edge, !llvm.loop !42

common.ret14:                                     ; preds = %1, %._crit_edge
  ret void

._crit_edge:                                      ; preds = %5, %.preheader
  %12 = getelementptr inbounds nuw i8, ptr %0, i64 48
  %13 = load ptr, ptr %12, align 8, !tbaa !43
  tail call void @av_encryption_init_info_free(ptr noundef %13)
  %14 = load ptr, ptr %0, align 8, !tbaa !29
  tail call void @av_free(ptr noundef %14) #4
  %15 = getelementptr inbounds nuw i8, ptr %0, i64 16
  %16 = load ptr, ptr %15, align 8, !tbaa !35
  tail call void @av_free(ptr noundef %16) #4
  %17 = getelementptr inbounds nuw i8, ptr %0, i64 32
  %18 = load ptr, ptr %17, align 8, !tbaa !38
  tail call void @av_free(ptr noundef %18) #4
  tail call void @av_free(ptr noundef nonnull %0) #4
  br label %common.ret14
}